; Function Attrs: nounwind sspstrong uwtable
define internal void @set_ims(ptr noundef %s, i32 %index, i32 noundef %val) #0 {
entry:
  %arrayidx = getelementptr i8, ptr %s, i64 11584
  %0 = load i32, ptr %arrayidx, align 16
  %or = or i32 %0, %val
  store i32 %or, ptr %arrayidx, align 16
  %arrayidx.i = getelementptr i8, ptr %s, i64 11568
  %1 = load i32, ptr %arrayidx.i, align 16
  tail call fastcc void @set_interrupt_cause(ptr noundef %s, i32 noundef %1)
  ret void
}